; Function Attrs: mustprogress uwtable
define noundef nonnull align 8 dereferenceable(64) ptr @_ZN6icu_7513LocaleMatcher7Builder18addSupportedLocaleERKNS_6LocaleE(ptr noundef nonnull returned align 8 dereferenceable(64) %this, ptr noundef nonnull align 8 dereferenceable(217) %locale) local_unnamed_addr #2 align 2 personality ptr @__gxx_personality_v0 {
entry:
  %0 = load i32, ptr %this, align 8
  %cmp.i.i = icmp slt i32 %0, 1
  br i1 %cmp.i.i, label %if.end.i, label %if.end

if.end.i:                                         ; preds = %entry
  %supportedLocales_.i = getelementptr inbounds i8, ptr %this, i64 8
  %1 = load ptr, ptr %supportedLocales_.i, align 8
  %cmp.not.i = icmp eq ptr %1, null
  br i1 %cmp.not.i, label %if.end3.i, label %if.then

if.end3.i:                                        ; preds = %if.end.i
  %call4.i = tail call noundef ptr @_ZN6icu_757UMemorynwEm(i64 noundef 40) #15
  %new.isnull.i = icmp eq ptr %call4.i, null
  br i1 %new.isnull.i, label %new.cont.i, label %new.notnull.i

new.notnull.i:                                    ; preds = %if.end3.i
  invoke void @_ZN6icu_757UVectorC1EPFvPvEPFa8UElementS4_ER10UErrorCode(ptr noundef nonnull align 8 dereferenceable(40) %call4.i, ptr noundef nonnull @uprv_deleteUObject_75, ptr noundef null, ptr noundef nonnull align 4 dereferenceable(4) %this)
          to label %_ZN6icu_7512LocalPointerINS_7UVectorEEC2EPS1_R10UErrorCode.exit.i unwind label %lpad.i

new.cont.i:                                       ; preds = %if.end3.i
  %2 = load i32, ptr %this, align 8
  %cmp.i.i.i = icmp sgt i32 %2, 0
  br i1 %cmp.i.i.i, label %if.end, label %if.then.i.i

if.then.i.i:                                      ; preds = %new.cont.i
  store i32 7, ptr %this, align 8
  br label %if.end

_ZN6icu_7512LocalPointerINS_7UVectorEEC2EPS1_R10UErrorCode.exit.i: ; preds = %new.notnull.i
  %.pre.i = load i32, ptr %this, align 8
  %3 = icmp slt i32 %.pre.i, 1
  br i1 %3, label %cleanup.thread.i, label %delete.notnull.i.i

lpad.i:                                           ; preds = %new.notnull.i
  %4 = landingpad { ptr, i32 }
          cleanup
  tail call void @_ZN6icu_757UMemorydlEPv(ptr noundef nonnull %call4.i) #15
  resume { ptr, i32 } %4

cleanup.thread.i:                                 ; preds = %_ZN6icu_7512LocalPointerINS_7UVectorEEC2EPS1_R10UErrorCode.exit.i
  store ptr %call4.i, ptr %supportedLocales_.i, align 8
  br label %if.then

delete.notnull.i.i:                               ; preds = %_ZN6icu_7512LocalPointerINS_7UVectorEEC2EPS1_R10UErrorCode.exit.i
  %vtable.i.i = load ptr, ptr %call4.i, align 8
  %vfn.i.i = getelementptr inbounds i8, ptr %vtable.i.i, i64 8
  %5 = load ptr, ptr %vfn.i.i, align 8
  tail call void %5(ptr noundef nonnull align 8 dereferenceable(40) %call4.i) #15
  br label %if.end

if.then:                                          ; preds = %cleanup.thread.i, %if.end.i
  %call2 = tail call noundef ptr @_ZNK6icu_756Locale5cloneEv(ptr noundef nonnull align 8 dereferenceable(217) %locale)
  %cmp.i = icmp ne ptr %call2, null
  %6 = load i32, ptr %this, align 8
  %cmp.i.i1 = icmp sgt i32 %6, 0
  %or.cond.i = select i1 %cmp.i, i1 true, i1 %cmp.i.i1
  br i1 %or.cond.i, label %_ZN6icu_7512LocalPointerINS_6LocaleEEC2EPS1_R10UErrorCode.exit, label %if.then.i

if.then.i:                                        ; preds = %if.then
  store i32 7, ptr %this, align 8
  br label %_ZN6icu_7512LocalPointerINS_6LocaleEEC2EPS1_R10UErrorCode.exit

_ZN6icu_7512LocalPointerINS_6LocaleEEC2EPS1_R10UErrorCode.exit: ; preds = %if.then, %if.then.i
  %7 = load ptr, ptr %supportedLocales_.i, align 8
  tail call void @_ZN6icu_757UVector12adoptElementEPvR10UErrorCode(ptr noundef nonnull align 8 dereferenceable(40) %7, ptr noundef %call2, ptr noundef nonnull align 4 dereferenceable(4) %this)
  br label %if.end

if.end:                                           ; preds = %_ZN6icu_7512LocalPointerINS_6LocaleEEC2EPS1_R10UErrorCode.exit, %new.cont.i, %if.then.i.i, %delete.notnull.i.i, %entry
  ret ptr %this
}